; Function Attrs: nounwind uwtable
define internal fastcc noalias nonnull ptr @_init_l_UInt16_reduceEq___regBuiltin_UInt16_reduceEq_declare__1____x40_Lean_Meta_Tactic_Simp_BuiltinSimprocs_UInt___hyg_9179____closed__1() unnamed_addr #0 {
  %1 = load ptr, ptr @l___private_Lean_Meta_Tactic_Simp_BuiltinSimprocs_UInt_0____regBuiltin_UInt16_reduceEq_declare__130____x40_Lean_Meta_Tactic_Simp_BuiltinSimprocs_UInt___hyg_9179__10060____closed__14, align 8, !tbaa !4
  tail call void @lean_inc_heartbeat() #5
  %2 = tail call noalias ptr @mi_malloc_small(i64 noundef 16) #5
  %3 = icmp eq ptr %2, null
  br i1 %3, label %4, label %lean_alloc_ctor.exit

4:                                                ; preds = %0
  tail call void @lean_internal_panic_out_of_memory() #6
  unreachable

lean_alloc_ctor.exit:                             ; preds = %0
  %5 = getelementptr inbounds nuw i8, ptr %2, i64 4
  store i32 1, ptr %2, align 4, !tbaa !8
  store i32 65552, ptr %5, align 4
  %6 = getelementptr inbounds nuw i8, ptr %2, i64 8
  store ptr %1, ptr %6, align 8, !tbaa !4
  ret ptr %2
}